target datalayout = "e-m:e-p270:32:32-p271:32:32-p272:64:64-i64:64-i128:128-f80:128-n8:16:32:64-S128"
target triple = "x86_64-pc-linux-gnu"

%struct.AVFilterContext = type { ptr, ptr, ptr, ptr, ptr, i32, ptr, ptr, i32, ptr, ptr, i32, i32, ptr, ptr, ptr, ptr, i32, ptr, i32, i32 }
%struct.AVFilter = type { ptr, ptr, ptr, ptr, ptr, i32 }

; Function Attrs: nounwind uwtable
define i32 @ff_filter_process_command(ptr noundef %0, ptr noundef %1, ptr noundef %2, ptr noundef %3, i32 noundef %4, i32 noundef %5) #0 {
  %7 = alloca i32, align 4
  %8 = alloca ptr, align 8
  %9 = alloca ptr, align 8
  %10 = alloca ptr, align 8
  %11 = alloca ptr, align 8
  %12 = alloca i32, align 4
  %13 = alloca i32, align 4
  %14 = alloca ptr, align 8
  %15 = alloca i32, align 4
  store ptr %0, ptr %8, align 8, !tbaa !4
  store ptr %1, ptr %9, align 8, !tbaa !124
  store ptr %2, ptr %10, align 8, !tbaa !124
  store ptr %3, ptr %11, align 8, !tbaa !124
  store i32 %4, ptr %12, align 4, !tbaa !19
  store i32 %5, ptr %13, align 4, !tbaa !19
  call void @llvm.lifetime.start.p0(i64 8, ptr %14) #11
  %16 = load ptr, ptr %8, align 8, !tbaa !4
  %17 = getelementptr inbounds nuw %struct.AVFilterContext, ptr %16, i32 0, i32 1
  %18 = load ptr, ptr %17, align 8, !tbaa !110
  %19 = getelementptr inbounds nuw %struct.AVFilter, ptr %18, i32 0, i32 4
  %20 = load ptr, ptr %19, align 8, !tbaa !140
  %21 = icmp ne ptr %20, null
  br i1 %21, label %23, label %22

22:                                               ; preds = %6
  store i32 0, ptr %7, align 4
  store i32 1, ptr %15, align 4
  br label %39

23:                                               ; preds = %6
  %24 = load ptr, ptr %8, align 8, !tbaa !4
  %25 = getelementptr inbounds nuw %struct.AVFilterContext, ptr %24, i32 0, i32 9
  %26 = load ptr, ptr %25, align 8, !tbaa !131
  %27 = load ptr, ptr %9, align 8, !tbaa !124
  %28 = call ptr @av_opt_find2(ptr noundef %26, ptr noundef %27, ptr noundef null, i32 noundef 98304, i32 noundef 1, ptr noundef null)
  store ptr %28, ptr %14, align 8, !tbaa !161
  %29 = load ptr, ptr %14, align 8, !tbaa !161
  %30 = icmp ne ptr %29, null
  br i1 %30, label %32, label %31

31:                                               ; preds = %23
  store i32 -38, ptr %7, align 4
  store i32 1, ptr %15, align 4
  br label %39

32:                                               ; preds = %23
  %33 = load ptr, ptr %8, align 8, !tbaa !4
  %34 = getelementptr inbounds nuw %struct.AVFilterContext, ptr %33, i32 0, i32 9
  %35 = load ptr, ptr %34, align 8, !tbaa !131
  %36 = load ptr, ptr %9, align 8, !tbaa !124
  %37 = load ptr, ptr %10, align 8, !tbaa !124
  %38 = call i32 @av_opt_set(ptr noundef %35, ptr noundef %36, ptr noundef %37, i32 noundef 0)
  store i32 %38, ptr %7, align 4
  store i32 1, ptr %15, align 4
  br label %39

39:                                               ; preds = %32, %31, %22
  call void @llvm.lifetime.end.p0(i64 8, ptr %14) #11
  %40 = load i32, ptr %7, align 4
  ret i32 %40
}