; Function Attrs: nounwind uwtable
define i32 @ff_filter_process_command(ptr noundef readonly captures(none) %0, ptr noundef %1, ptr noundef %2, ptr noundef readnone captures(none) %3, i32 noundef %4, i32 noundef %5) local_unnamed_addr #0 {
  %7 = getelementptr inbounds nuw i8, ptr %0, i64 8
  %8 = load ptr, ptr %7, align 8, !tbaa !92
  %9 = getelementptr inbounds nuw i8, ptr %8, i64 32
  %10 = load ptr, ptr %9, align 8, !tbaa !113
  %.not = icmp eq ptr %10, null
  br i1 %.not, label %18, label %11

11:                                               ; preds = %6
  %12 = getelementptr inbounds nuw i8, ptr %0, i64 72
  %13 = load ptr, ptr %12, align 8, !tbaa !107
  %14 = tail call ptr @av_opt_find2(ptr noundef %13, ptr noundef %1, ptr noundef null, i32 noundef 98304, i32 noundef 1, ptr noundef null) #15
  %.not7 = icmp eq ptr %14, null
  br i1 %.not7, label %18, label %15

15:                                               ; preds = %11
  %16 = load ptr, ptr %12, align 8, !tbaa !107
  %17 = tail call i32 @av_opt_set(ptr noundef %16, ptr noundef %1, ptr noundef %2, i32 noundef 0) #15
  br label %18

18:                                               ; preds = %11, %6, %15
  %.0 = phi i32 [ %17, %15 ], [ 0, %6 ], [ -38, %11 ]
  ret i32 %.0
}